target datalayout = "e-m:e-p270:32:32-p271:32:32-p272:64:64-i64:64-i128:128-f80:128-n8:16:32:64-S128"
target triple = "x86_64-pc-linux-gnu"

%struct.object_id = type { [32 x i8], i32 }
%struct.oid_array = type { ptr, i64, i64, i32 }
%struct.commit_list = type { ptr, ptr }
%struct.commit = type { %struct.object, i64, ptr, ptr, i32 }
%struct.object = type { i32, %struct.object_id }

; Function Attrs: nounwind uwtable
define dso_local void @diff_tree_combined_merge(ptr noundef %0, ptr noundef %1) #0 {
  %3 = alloca ptr, align 8
  %4 = alloca ptr, align 8
  %5 = alloca ptr, align 8
  %6 = alloca %struct.oid_array, align 8
  store ptr %0, ptr %3, align 8, !tbaa !202
  store ptr %1, ptr %4, align 8, !tbaa !11
  call void @llvm.lifetime.start.p0(i64 8, ptr %5) #9
  %7 = load ptr, ptr %4, align 8, !tbaa !11
  %8 = load ptr, ptr %3, align 8, !tbaa !202
  %9 = call ptr @get_saved_parents(ptr noundef %7, ptr noundef %8)
  store ptr %9, ptr %5, align 8, !tbaa !204
  call void @llvm.lifetime.start.p0(i64 32, ptr %6) #9
  call void @llvm.memset.p0.i64(ptr align 8 %6, i8 0, i64 32, i1 false)
  br label %10

10:                                               ; preds = %13, %2
  %11 = load ptr, ptr %5, align 8, !tbaa !204
  %12 = icmp ne ptr %11, null
  br i1 %12, label %13, label %22

13:                                               ; preds = %10
  %14 = load ptr, ptr %5, align 8, !tbaa !204
  %15 = getelementptr inbounds nuw %struct.commit_list, ptr %14, i32 0, i32 0
  %16 = load ptr, ptr %15, align 8, !tbaa !205
  %17 = getelementptr inbounds nuw %struct.commit, ptr %16, i32 0, i32 0
  %18 = getelementptr inbounds nuw %struct.object, ptr %17, i32 0, i32 1
  call void @oid_array_append(ptr noundef %6, ptr noundef %18)
  %19 = load ptr, ptr %5, align 8, !tbaa !204
  %20 = getelementptr inbounds nuw %struct.commit_list, ptr %19, i32 0, i32 1
  %21 = load ptr, ptr %20, align 8, !tbaa !207
  store ptr %21, ptr %5, align 8, !tbaa !204
  br label %10, !llvm.loop !208

22:                                               ; preds = %10
  %23 = load ptr, ptr %3, align 8, !tbaa !202
  %24 = getelementptr inbounds nuw %struct.commit, ptr %23, i32 0, i32 0
  %25 = getelementptr inbounds nuw %struct.object, ptr %24, i32 0, i32 1
  %26 = load ptr, ptr %4, align 8, !tbaa !11
  call void @diff_tree_combined(ptr noundef %25, ptr noundef %6, ptr noundef %26)
  call void @oid_array_clear(ptr noundef %6)
  call void @llvm.lifetime.end.p0(i64 32, ptr %6) #9
  call void @llvm.lifetime.end.p0(i64 8, ptr %5) #9
  ret void
}