; Function Attrs: nounwind uwtable
define dso_local void @diff_tree_combined_merge(ptr noundef %0, ptr noundef %1) local_unnamed_addr #0 {
  %3 = alloca %struct.oid_array, align 8
  %4 = tail call ptr @get_saved_parents(ptr noundef %1, ptr noundef %0) #15
  call void @llvm.lifetime.start.p0(i64 32, ptr nonnull %3) #15
  call void @llvm.memset.p0.i64(ptr noundef nonnull align 8 dereferenceable(32) %3, i8 0, i64 32, i1 false)
  %.not7 = icmp eq ptr %4, null
  br i1 %.not7, label %._crit_edge, label %.lr.ph

.lr.ph:                                           ; preds = %2, %.lr.ph
  %.08 = phi ptr [ %8, %.lr.ph ], [ %4, %2 ]
  %5 = load ptr, ptr %.08, align 8, !tbaa !255
  %6 = getelementptr inbounds nuw i8, ptr %5, i64 4
  call void @oid_array_append(ptr noundef nonnull %3, ptr noundef nonnull %6) #15
  %7 = getelementptr inbounds nuw i8, ptr %.08, i64 8
  %8 = load ptr, ptr %7, align 8, !tbaa !258
  %.not = icmp eq ptr %8, null
  br i1 %.not, label %._crit_edge, label %.lr.ph, !llvm.loop !259

._crit_edge:                                      ; preds = %.lr.ph, %2
  %9 = getelementptr inbounds nuw i8, ptr %0, i64 4
  call void @diff_tree_combined(ptr noundef nonnull %9, ptr noundef nonnull %3, ptr noundef %1)
  call void @oid_array_clear(ptr noundef nonnull %3) #15
  call void @llvm.lifetime.end.p0(i64 32, ptr nonnull %3) #15
  ret void
}